target datalayout = "e-m:e-p270:32:32-p271:32:32-p272:64:64-i64:64-i128:128-f80:128-n8:16:32:64-S128"
target triple = "x86_64-pc-linux-gnu"

%struct.Aig_Man_t_ = type { ptr, ptr, ptr, ptr, ptr, ptr, ptr, %struct.Aig_Obj_t_, i32, i32, i32, i32, i32, i32, [7 x i32], i32, ptr, i32, ptr, i32, ptr, i32, i32, i32, ptr, i32, i32, i32, i32, i32, ptr, ptr, i32, ptr, ptr, i32, ptr, ptr, i32, i32, i32, ptr, ptr, ptr, ptr, ptr, ptr, ptr, ptr, ptr, ptr, ptr, ptr, ptr, ptr, i32, ptr, ptr, ptr, ptr, i32, i64, i64, i64, ptr, ptr }
%struct.Aig_Obj_t_ = type { %union.anon, ptr, ptr, i64, i32, i32, %union.anon.0 }
%union.anon = type { ptr }
%union.anon.0 = type { ptr }
%struct.Abc_Cex_t_ = type { i32, i32, i32, i32, i32, [0 x i32] }

@.str.28 = private unnamed_addr constant [54 x i8] c"The PI count in the AIG and in the CEX do not match.\0A\00", align 1

; Function Attrs: inlinehint nounwind uwtable
define internal void @Abc_InfoSetBit(ptr noundef %0, i32 noundef %1) #4 {
  %3 = alloca ptr, align 8
  %4 = alloca i32, align 4
  store ptr %0, ptr %3, align 8, !tbaa !45
  store i32 %1, ptr %4, align 4, !tbaa !22
  %5 = load i32, ptr %4, align 4, !tbaa !22
  %6 = and i32 %5, 31
  %7 = shl i32 1, %6
  %8 = load ptr, ptr %3, align 8, !tbaa !45
  %9 = load i32, ptr %4, align 4, !tbaa !22
  %10 = ashr i32 %9, 5
  %11 = sext i32 %10 to i64
  %12 = getelementptr inbounds i32, ptr %8, i64 %11
  %13 = load i32, ptr %12, align 4, !tbaa !22
  %14 = or i32 %13, %7
  store i32 %14, ptr %12, align 4, !tbaa !22
  ret void
}

; Function Attrs: inlinehint nounwind uwtable
define internal i32 @Abc_InfoHasBit(ptr noundef %0, i32 noundef %1) #4 {
  %3 = alloca ptr, align 8
  %4 = alloca i32, align 4
  store ptr %0, ptr %3, align 8, !tbaa !45
  store i32 %1, ptr %4, align 4, !tbaa !22
  %5 = load ptr, ptr %3, align 8, !tbaa !45
  %6 = load i32, ptr %4, align 4, !tbaa !22
  %7 = ashr i32 %6, 5
  %8 = sext i32 %7 to i64
  %9 = getelementptr inbounds i32, ptr %5, i64 %8
  %10 = load i32, ptr %9, align 4, !tbaa !22
  %11 = load i32, ptr %4, align 4, !tbaa !22
  %12 = and i32 %11, 31
  %13 = shl i32 1, %12
  %14 = and i32 %10, %13
  %15 = icmp ugt i32 %14, 0
  %16 = zext i1 %15 to i32
  ret i32 %16
}

; Function Attrs: inlinehint nounwind uwtable
define internal i32 @Saig_ManRegNum(ptr noundef %0) #4 {
  %2 = alloca ptr, align 8
  store ptr %0, ptr %2, align 8, !tbaa !3
  %3 = load ptr, ptr %2, align 8, !tbaa !3
  %4 = getelementptr inbounds nuw %struct.Aig_Man_t_, ptr %3, i32 0, i32 8
  %5 = load i32, ptr %4, align 8, !tbaa !23
  ret i32 %5
}

; Function Attrs: inlinehint nounwind uwtable
define internal i32 @Saig_ManPoNum(ptr noundef %0) #4 {
  %2 = alloca ptr, align 8
  store ptr %0, ptr %2, align 8, !tbaa !3
  %3 = load ptr, ptr %2, align 8, !tbaa !3
  %4 = getelementptr inbounds nuw %struct.Aig_Man_t_, ptr %3, i32 0, i32 10
  %5 = load i32, ptr %4, align 8, !tbaa !80
  ret i32 %5
}

; Function Attrs: inlinehint nounwind uwtable
define internal i32 @Saig_ManPiNum(ptr noundef %0) #4 {
  %2 = alloca ptr, align 8
  store ptr %0, ptr %2, align 8, !tbaa !3
  %3 = load ptr, ptr %2, align 8, !tbaa !3
  %4 = getelementptr inbounds nuw %struct.Aig_Man_t_, ptr %3, i32 0, i32 9
  %5 = load i32, ptr %4, align 4, !tbaa !79
  ret i32 %5
}

; Function Attrs: nounwind uwtable
define ptr @Saig_PhaseTranslateCex(ptr noundef %0, ptr noundef %1) #0 {
  %3 = alloca ptr, align 8
  %4 = alloca ptr, align 8
  %5 = alloca ptr, align 8
  %6 = alloca ptr, align 8
  %7 = alloca i32, align 4
  %8 = alloca i32, align 4
  %9 = alloca i32, align 4
  %10 = alloca i32, align 4
  %11 = alloca i32, align 4
  store ptr %0, ptr %4, align 8, !tbaa !3
  store ptr %1, ptr %5, align 8, !tbaa !112
  call void @llvm.lifetime.start.p0(i64 8, ptr %6) #9
  call void @llvm.lifetime.start.p0(i64 4, ptr %7) #9
  call void @llvm.lifetime.start.p0(i64 4, ptr %8) #9
  call void @llvm.lifetime.start.p0(i64 4, ptr %9) #9
  call void @llvm.lifetime.start.p0(i64 4, ptr %10) #9
  %12 = load ptr, ptr %5, align 8, !tbaa !112
  %13 = getelementptr inbounds nuw %struct.Abc_Cex_t_, ptr %12, i32 0, i32 3
  %14 = load i32, ptr %13, align 4, !tbaa !113
  %15 = load ptr, ptr %4, align 8, !tbaa !3
  %16 = call i32 @Saig_ManPiNum(ptr noundef %15)
  %17 = srem i32 %14, %16
  %18 = icmp ne i32 %17, 0
  br i1 %18, label %19, label %21

19:                                               ; preds = %2
  %20 = call i32 (ptr, ...) @printf(ptr noundef @.str.28)
  store ptr null, ptr %3, align 8
  store i32 1, ptr %11, align 4
  br label %90

21:                                               ; preds = %2
  %22 = load ptr, ptr %5, align 8, !tbaa !112
  %23 = getelementptr inbounds nuw %struct.Abc_Cex_t_, ptr %22, i32 0, i32 3
  %24 = load i32, ptr %23, align 4, !tbaa !113
  %25 = load ptr, ptr %4, align 8, !tbaa !3
  %26 = call i32 @Saig_ManPiNum(ptr noundef %25)
  %27 = sdiv i32 %24, %26
  store i32 %27, ptr %10, align 4, !tbaa !22
  %28 = load ptr, ptr %5, align 8, !tbaa !112
  %29 = getelementptr inbounds nuw %struct.Abc_Cex_t_, ptr %28, i32 0, i32 1
  %30 = load i32, ptr %29, align 4, !tbaa !115
  %31 = load i32, ptr %10, align 4, !tbaa !22
  %32 = mul nsw i32 %30, %31
  %33 = load ptr, ptr %5, align 8, !tbaa !112
  %34 = getelementptr inbounds nuw %struct.Abc_Cex_t_, ptr %33, i32 0, i32 0
  %35 = load i32, ptr %34, align 4, !tbaa !116
  %36 = load ptr, ptr %4, align 8, !tbaa !3
  %37 = call i32 @Saig_ManPoNum(ptr noundef %36)
  %38 = sdiv i32 %35, %37
  %39 = add nsw i32 %32, %38
  store i32 %39, ptr %9, align 4, !tbaa !22
  %40 = load ptr, ptr %4, align 8, !tbaa !3
  %41 = call i32 @Saig_ManRegNum(ptr noundef %40)
  %42 = load ptr, ptr %4, align 8, !tbaa !3
  %43 = call i32 @Saig_ManPiNum(ptr noundef %42)
  %44 = load i32, ptr %9, align 4, !tbaa !22
  %45 = add nsw i32 %44, 1
  %46 = call ptr @Abc_CexAlloc(i32 noundef %41, i32 noundef %43, i32 noundef %45)
  store ptr %46, ptr %6, align 8, !tbaa !112
  %47 = load i32, ptr %9, align 4, !tbaa !22
  %48 = load ptr, ptr %6, align 8, !tbaa !112
  %49 = getelementptr inbounds nuw %struct.Abc_Cex_t_, ptr %48, i32 0, i32 1
  store i32 %47, ptr %49, align 4, !tbaa !115
  %50 = load ptr, ptr %5, align 8, !tbaa !112
  %51 = getelementptr inbounds nuw %struct.Abc_Cex_t_, ptr %50, i32 0, i32 0
  %52 = load i32, ptr %51, align 4, !tbaa !116
  %53 = load ptr, ptr %4, align 8, !tbaa !3
  %54 = call i32 @Saig_ManPoNum(ptr noundef %53)
  %55 = srem i32 %52, %54
  %56 = load ptr, ptr %6, align 8, !tbaa !112
  %57 = getelementptr inbounds nuw %struct.Abc_Cex_t_, ptr %56, i32 0, i32 0
  store i32 %55, ptr %57, align 4, !tbaa !116
  %58 = load ptr, ptr %5, align 8, !tbaa !112
  %59 = getelementptr inbounds nuw %struct.Abc_Cex_t_, ptr %58, i32 0, i32 2
  %60 = load i32, ptr %59, align 4, !tbaa !117
  store i32 %60, ptr %7, align 4, !tbaa !22
  %61 = load ptr, ptr %6, align 8, !tbaa !112
  %62 = getelementptr inbounds nuw %struct.Abc_Cex_t_, ptr %61, i32 0, i32 2
  %63 = load i32, ptr %62, align 4, !tbaa !117
  store i32 %63, ptr %8, align 4, !tbaa !22
  br label %64

64:                                               ; preds = %83, %21
  %65 = load i32, ptr %8, align 4, !tbaa !22
  %66 = load ptr, ptr %6, align 8, !tbaa !112
  %67 = getelementptr inbounds nuw %struct.Abc_Cex_t_, ptr %66, i32 0, i32 4
  %68 = load i32, ptr %67, align 4, !tbaa !118
  %69 = icmp slt i32 %65, %68
  br i1 %69, label %70, label %88

70:                                               ; preds = %64
  %71 = load ptr, ptr %5, align 8, !tbaa !112
  %72 = getelementptr inbounds nuw %struct.Abc_Cex_t_, ptr %71, i32 0, i32 5
  %73 = getelementptr inbounds [0 x i32], ptr %72, i64 0, i64 0
  %74 = load i32, ptr %7, align 4, !tbaa !22
  %75 = call i32 @Abc_InfoHasBit(ptr noundef %73, i32 noundef %74)
  %76 = icmp ne i32 %75, 0
  br i1 %76, label %77, label %82

77:                                               ; preds = %70
  %78 = load ptr, ptr %6, align 8, !tbaa !112
  %79 = getelementptr inbounds nuw %struct.Abc_Cex_t_, ptr %78, i32 0, i32 5
  %80 = getelementptr inbounds [0 x i32], ptr %79, i64 0, i64 0
  %81 = load i32, ptr %8, align 4, !tbaa !22
  call void @Abc_InfoSetBit(ptr noundef %80, i32 noundef %81)
  br label %82

82:                                               ; preds = %77, %70
  br label %83

83:                                               ; preds = %82
  %84 = load i32, ptr %8, align 4, !tbaa !22
  %85 = add nsw i32 %84, 1
  store i32 %85, ptr %8, align 4, !tbaa !22
  %86 = load i32, ptr %7, align 4, !tbaa !22
  %87 = add nsw i32 %86, 1
  store i32 %87, ptr %7, align 4, !tbaa !22
  br label %64, !llvm.loop !119

88:                                               ; preds = %64
  %89 = load ptr, ptr %6, align 8, !tbaa !112
  store ptr %89, ptr %3, align 8
  store i32 1, ptr %11, align 4
  br label %90

90:                                               ; preds = %88, %19
  call void @llvm.lifetime.end.p0(i64 4, ptr %10) #9
  call void @llvm.lifetime.end.p0(i64 4, ptr %9) #9
  call void @llvm.lifetime.end.p0(i64 4, ptr %8) #9
  call void @llvm.lifetime.end.p0(i64 4, ptr %7) #9
  call void @llvm.lifetime.end.p0(i64 8, ptr %6) #9
  %91 = load ptr, ptr %3, align 8
  ret ptr %91
}