; Function Attrs: nounwind uwtable
define noundef ptr @Saig_PhaseTranslateCex(ptr noundef readonly captures(none) %0, ptr noundef readonly captures(none) %1) local_unnamed_addr #0 {
  %3 = getelementptr inbounds nuw i8, ptr %1, i64 12
  %4 = load i32, ptr %3, align 4, !tbaa !104
  %5 = getelementptr i8, ptr %0, i64 108
  %.val31 = load i32, ptr %5, align 4, !tbaa !62
  %6 = srem i32 %4, %.val31
  %7 = sdiv i32 %4, %.val31
  %.not = icmp eq i32 %6, 0
  br i1 %.not, label %9, label %8

8:                                                ; preds = %2
  %puts = tail call i32 @puts(ptr nonnull dereferenceable(1) @str.12)
  br label %.loopexit

9:                                                ; preds = %2
  %10 = getelementptr inbounds nuw i8, ptr %1, i64 4
  %11 = load i32, ptr %10, align 4, !tbaa !106
  %12 = mul nsw i32 %11, %7
  %13 = load i32, ptr %1, align 4, !tbaa !107
  %14 = getelementptr i8, ptr %0, i64 112
  %.val34 = load i32, ptr %14, align 8, !tbaa !73
  %15 = sdiv i32 %13, %.val34
  %16 = add nsw i32 %15, %12
  %17 = getelementptr i8, ptr %0, i64 104
  %.val32 = load i32, ptr %17, align 8, !tbaa !14
  %18 = add nsw i32 %16, 1
  %19 = tail call ptr @Abc_CexAlloc(i32 noundef %.val32, i32 noundef %.val31, i32 noundef %18) #21
  %20 = getelementptr inbounds nuw i8, ptr %19, i64 4
  store i32 %16, ptr %20, align 4, !tbaa !106
  %21 = load i32, ptr %1, align 4, !tbaa !107
  %.val33 = load i32, ptr %14, align 8, !tbaa !73
  %22 = srem i32 %21, %.val33
  store i32 %22, ptr %19, align 4, !tbaa !107
  %23 = getelementptr inbounds nuw i8, ptr %19, i64 8
  %24 = load i32, ptr %23, align 4, !tbaa !108
  %25 = getelementptr inbounds nuw i8, ptr %19, i64 16
  %26 = load i32, ptr %25, align 4, !tbaa !109
  %27 = icmp slt i32 %24, %26
  br i1 %27, label %.lr.ph, label %.loopexit

.lr.ph:                                           ; preds = %9
  %28 = getelementptr inbounds nuw i8, ptr %1, i64 8
  %29 = load i32, ptr %28, align 4, !tbaa !108
  %30 = getelementptr inbounds nuw i8, ptr %1, i64 20
  %31 = getelementptr inbounds nuw i8, ptr %19, i64 20
  br label %32

32:                                               ; preds = %.lr.ph, %49
  %33 = phi i32 [ %26, %.lr.ph ], [ %50, %49 ]
  %.02736 = phi i32 [ %29, %.lr.ph ], [ %52, %49 ]
  %.02835 = phi i32 [ %24, %.lr.ph ], [ %51, %49 ]
  %34 = ashr i32 %.02736, 5
  %35 = sext i32 %34 to i64
  %36 = getelementptr inbounds i32, ptr %30, i64 %35
  %37 = load i32, ptr %36, align 4, !tbaa !39
  %38 = and i32 %.02736, 31
  %39 = shl nuw i32 1, %38
  %40 = and i32 %37, %39
  %.not29 = icmp eq i32 %40, 0
  br i1 %.not29, label %49, label %41

41:                                               ; preds = %32
  %42 = and i32 %.02835, 31
  %43 = shl nuw i32 1, %42
  %44 = ashr i32 %.02835, 5
  %45 = sext i32 %44 to i64
  %46 = getelementptr inbounds i32, ptr %31, i64 %45
  %47 = load i32, ptr %46, align 4, !tbaa !39
  %48 = or i32 %47, %43
  store i32 %48, ptr %46, align 4, !tbaa !39
  %.pre = load i32, ptr %25, align 4, !tbaa !109
  br label %49

49:                                               ; preds = %32, %41
  %50 = phi i32 [ %33, %32 ], [ %.pre, %41 ]
  %51 = add nsw i32 %.02835, 1
  %52 = add nsw i32 %.02736, 1
  %53 = icmp slt i32 %51, %50
  br i1 %53, label %32, label %.loopexit, !llvm.loop !110

.loopexit:                                        ; preds = %49, %9, %8
  %.0 = phi ptr [ null, %8 ], [ %19, %9 ], [ %19, %49 ]
  ret ptr %.0
}